target datalayout = "e-m:e-p270:32:32-p271:32:32-p272:64:64-i64:64-i128:128-f80:128-n8:16:32:64-S128"
target triple = "x86_64-pc-linux-gnu"

%class.b3Vector3 = type { %union.anon }
%union.anon = type { [4 x float] }
%struct.b3DynamicBvh = type { ptr, ptr, i32, i32, i32, [4 x i8], %class.b3AlignedObjectArray, %class.b3AlignedObjectArray.0 }
%class.b3AlignedObjectArray = type <{ [4 x i8], i32, i32, [4 x i8], ptr, i8, [7 x i8] }>
%class.b3AlignedObjectArray.0 = type <{ [4 x i8], i32, i32, [4 x i8], ptr, i8, [7 x i8] }>
%struct.b3DbvtNode = type { %struct.b3DbvtAabbMm, ptr, %union.anon.4, [8 x i8] }
%struct.b3DbvtAabbMm = type { %class.b3Vector3, %class.b3Vector3 }
%union.anon.4 = type { [2 x ptr] }

; Function Attrs: inlinehint mustprogress uwtable
define internal noundef ptr @_ZL12b3CreateNodeP12b3DynamicBvhP10b3DbvtNodePv(ptr noundef %0, ptr noundef %1, ptr noundef %2) #4 {
  %4 = alloca ptr, align 8
  %5 = alloca ptr, align 8
  %6 = alloca ptr, align 8
  %7 = alloca ptr, align 8
  store ptr %0, ptr %4, align 8, !tbaa !4
  store ptr %1, ptr %5, align 8, !tbaa !28
  store ptr %2, ptr %6, align 8, !tbaa !59
  call void @llvm.lifetime.start.p0(i64 8, ptr %7) #12
  %8 = load ptr, ptr %4, align 8, !tbaa !4
  %9 = getelementptr inbounds nuw %struct.b3DynamicBvh, ptr %8, i32 0, i32 1
  %10 = load ptr, ptr %9, align 8, !tbaa !20
  %11 = icmp ne ptr %10, null
  br i1 %11, label %12, label %18

12:                                               ; preds = %3
  %13 = load ptr, ptr %4, align 8, !tbaa !4
  %14 = getelementptr inbounds nuw %struct.b3DynamicBvh, ptr %13, i32 0, i32 1
  %15 = load ptr, ptr %14, align 8, !tbaa !20
  store ptr %15, ptr %7, align 8, !tbaa !28
  %16 = load ptr, ptr %4, align 8, !tbaa !4
  %17 = getelementptr inbounds nuw %struct.b3DynamicBvh, ptr %16, i32 0, i32 1
  store ptr null, ptr %17, align 8, !tbaa !20
  br label %20

18:                                               ; preds = %3
  %19 = call noundef ptr @_Z22b3AlignedAllocInternalmi(i64 noundef 64, i32 noundef 16)
  call void @llvm.memset.p0.i64(ptr align 16 %19, i8 0, i64 64, i1 false)
  store ptr %19, ptr %7, align 8, !tbaa !28
  br label %20

20:                                               ; preds = %18, %12
  %21 = load ptr, ptr %5, align 8, !tbaa !28
  %22 = load ptr, ptr %7, align 8, !tbaa !28
  %23 = getelementptr inbounds nuw %struct.b3DbvtNode, ptr %22, i32 0, i32 1
  store ptr %21, ptr %23, align 16, !tbaa !45
  %24 = load ptr, ptr %6, align 8, !tbaa !59
  %25 = load ptr, ptr %7, align 8, !tbaa !28
  %26 = getelementptr inbounds nuw %struct.b3DbvtNode, ptr %25, i32 0, i32 2
  store ptr %24, ptr %26, align 8, !tbaa !29
  %27 = load ptr, ptr %7, align 8, !tbaa !28
  %28 = getelementptr inbounds nuw %struct.b3DbvtNode, ptr %27, i32 0, i32 2
  %29 = getelementptr inbounds [2 x ptr], ptr %28, i64 0, i64 1
  store ptr null, ptr %29, align 8, !tbaa !29
  %30 = load ptr, ptr %7, align 8, !tbaa !28
  call void @llvm.lifetime.end.p0(i64 8, ptr %7) #12
  ret ptr %30
}

; Function Attrs: inlinehint mustprogress uwtable
define internal noundef ptr @_ZL12b3CreateNodeP12b3DynamicBvhP10b3DbvtNodeRK12b3DbvtAabbMmPv(ptr noundef %0, ptr noundef %1, ptr noundef nonnull align 16 dereferenceable(32) %2, ptr noundef %3) #4 {
  %5 = alloca ptr, align 8
  %6 = alloca ptr, align 8
  %7 = alloca ptr, align 8
  %8 = alloca ptr, align 8
  %9 = alloca ptr, align 8
  store ptr %0, ptr %5, align 8, !tbaa !4
  store ptr %1, ptr %6, align 8, !tbaa !28
  store ptr %2, ptr %7, align 8, !tbaa !57
  store ptr %3, ptr %8, align 8, !tbaa !59
  call void @llvm.lifetime.start.p0(i64 8, ptr %9) #12
  %10 = load ptr, ptr %5, align 8, !tbaa !4
  %11 = load ptr, ptr %6, align 8, !tbaa !28
  %12 = load ptr, ptr %8, align 8, !tbaa !59
  %13 = call noundef ptr @_ZL12b3CreateNodeP12b3DynamicBvhP10b3DbvtNodePv(ptr noundef %10, ptr noundef %11, ptr noundef %12)
  store ptr %13, ptr %9, align 8, !tbaa !28
  %14 = load ptr, ptr %7, align 8, !tbaa !57
  %15 = load ptr, ptr %9, align 8, !tbaa !28
  %16 = getelementptr inbounds nuw %struct.b3DbvtNode, ptr %15, i32 0, i32 0
  call void @llvm.memcpy.p0.p0.i64(ptr align 16 %16, ptr align 16 %14, i64 32, i1 false), !tbaa.struct !60
  %17 = load ptr, ptr %9, align 8, !tbaa !28
  call void @llvm.lifetime.end.p0(i64 8, ptr %9) #12
  ret ptr %17
}

; Function Attrs: mustprogress uwtable
define dso_local noundef ptr @_ZN12b3DynamicBvh6insertERK12b3DbvtAabbMmPv(ptr noundef nonnull align 8 dereferenceable(96) %0, ptr noundef nonnull align 16 dereferenceable(32) %1, ptr noundef %2) #0 align 2 {
  %4 = alloca ptr, align 8
  %5 = alloca ptr, align 8
  %6 = alloca ptr, align 8
  %7 = alloca ptr, align 8
  store ptr %0, ptr %4, align 8, !tbaa !4
  store ptr %1, ptr %5, align 8, !tbaa !57
  store ptr %2, ptr %6, align 8, !tbaa !59
  %8 = load ptr, ptr %4, align 8
  call void @llvm.lifetime.start.p0(i64 8, ptr %7) #12
  %9 = load ptr, ptr %5, align 8, !tbaa !57
  %10 = load ptr, ptr %6, align 8, !tbaa !59
  %11 = call noundef ptr @_ZL12b3CreateNodeP12b3DynamicBvhP10b3DbvtNodeRK12b3DbvtAabbMmPv(ptr noundef %8, ptr noundef null, ptr noundef nonnull align 16 dereferenceable(32) %9, ptr noundef %10)
  store ptr %11, ptr %7, align 8, !tbaa !28
  %12 = getelementptr inbounds nuw %struct.b3DynamicBvh, ptr %8, i32 0, i32 0
  %13 = load ptr, ptr %12, align 8, !tbaa !9
  %14 = load ptr, ptr %7, align 8, !tbaa !28
  call void @_ZL12b3InsertLeafP12b3DynamicBvhP10b3DbvtNodeS2_(ptr noundef %8, ptr noundef %13, ptr noundef %14)
  %15 = getelementptr inbounds nuw %struct.b3DynamicBvh, ptr %8, i32 0, i32 3
  %16 = load i32, ptr %15, align 4, !tbaa !22
  %17 = add nsw i32 %16, 1
  store i32 %17, ptr %15, align 4, !tbaa !22
  %18 = load ptr, ptr %7, align 8, !tbaa !28
  call void @llvm.lifetime.end.p0(i64 8, ptr %7) #12
  ret ptr %18
}