; Function Attrs: mustprogress uwtable
define dso_local noundef ptr @_ZN12b3DynamicBvh6insertERK12b3DbvtAabbMmPv(ptr noundef nonnull align 8 captures(none) dereferenceable(96) %0, ptr noundef nonnull readonly align 16 captures(none) dereferenceable(32) %1, ptr noundef %2) local_unnamed_addr #2 align 2 {
  %4 = getelementptr inbounds nuw i8, ptr %0, i64 8
  %5 = load ptr, ptr %4, align 8, !tbaa !29
  %.not.i.i = icmp eq ptr %5, null
  br i1 %.not.i.i, label %7, label %6

6:                                                ; preds = %3
  store ptr null, ptr %4, align 8, !tbaa !29
  br label %_ZL12b3CreateNodeP12b3DynamicBvhP10b3DbvtNodeRK12b3DbvtAabbMmPv.exit

7:                                                ; preds = %3
  %8 = tail call noundef ptr @_Z22b3AlignedAllocInternalmi(i64 noundef 64, i32 noundef 16)
  tail call void @llvm.memset.p0.i64(ptr noundef nonnull align 16 dereferenceable(64) %8, i8 0, i64 64, i1 false)
  br label %_ZL12b3CreateNodeP12b3DynamicBvhP10b3DbvtNodeRK12b3DbvtAabbMmPv.exit

_ZL12b3CreateNodeP12b3DynamicBvhP10b3DbvtNodeRK12b3DbvtAabbMmPv.exit: ; preds = %6, %7
  %.0.i.i = phi ptr [ %5, %6 ], [ %8, %7 ]
  %9 = getelementptr inbounds nuw i8, ptr %.0.i.i, i64 32
  store ptr null, ptr %9, align 16, !tbaa !46
  %10 = getelementptr inbounds nuw i8, ptr %.0.i.i, i64 40
  store ptr %2, ptr %10, align 8, !tbaa !32
  %11 = getelementptr inbounds nuw i8, ptr %.0.i.i, i64 48
  store ptr null, ptr %11, align 8, !tbaa !32
  tail call void @llvm.memcpy.p0.p0.i64(ptr noundef nonnull align 16 dereferenceable(32) %.0.i.i, ptr noundef nonnull readonly align 16 dereferenceable(32) %1, i64 32, i1 false), !tbaa.struct !59
  %12 = load ptr, ptr %0, align 8, !tbaa !28
  tail call fastcc void @_ZL12b3InsertLeafP12b3DynamicBvhP10b3DbvtNodeS2_(ptr noundef %0, ptr noundef %12, ptr noundef nonnull %.0.i.i)
  %13 = getelementptr inbounds nuw i8, ptr %0, i64 20
  %14 = load i32, ptr %13, align 4, !tbaa !26
  %15 = add nsw i32 %14, 1
  store i32 %15, ptr %13, align 4, !tbaa !26
  ret ptr %.0.i.i
}